target datalayout = "e-m:e-p270:32:32-p271:32:32-p272:64:64-i64:64-i128:128-f80:128-n8:16:32:64-S128"
target triple = "x86_64-pc-linux-gnu"

%struct.archive_read = type { %struct.archive, ptr, i32, i64, i64, %struct.archive_read_client, [16 x %struct.archive_read_filter_bidder], ptr, i32, i64, i32, i32, [16 x %struct.archive_format_descriptor], ptr, ptr, ptr, %struct.anon }
%struct.archive = type { i32, i32, ptr, i32, ptr, i32, i32, ptr, %struct.archive_string, ptr, i32, i32, ptr, ptr, i64, i64, i64, i8, i64 }
%struct.archive_string = type { ptr, i64, i64 }
%struct.archive_read_client = type { ptr, ptr, ptr, ptr, ptr, ptr, i32, i32, i64, ptr }
%struct.archive_read_filter_bidder = type { ptr, ptr, ptr }
%struct.archive_format_descriptor = type { ptr, ptr, ptr, ptr, ptr, ptr, ptr, ptr, ptr, ptr, ptr }
%struct.anon = type { ptr, ptr, i32, ptr, ptr }
%struct.tar = type { %struct.archive_string, %struct.archive_string, %struct.archive_string, %struct.archive_string, %struct.archive_string, %struct.archive_string, i32, i64, i64, i64, i64, i64, ptr, ptr, i64, i64, i32, i32, i8, i8, %struct.archive_string, ptr, ptr, ptr, ptr, i32, i32, i32, i32, i32 }
%struct.sparse_block = type { ptr, i64, i64, i32 }

; Function Attrs: nounwind uwtable
define internal void @gnu_clear_sparse_list(ptr noundef %0) #0 {
  %2 = alloca ptr, align 8
  %3 = alloca ptr, align 8
  store ptr %0, ptr %2, align 8, !tbaa !13
  call void @llvm.lifetime.start.p0(i64 8, ptr %3) #10
  br label %4

4:                                                ; preds = %9, %1
  %5 = load ptr, ptr %2, align 8, !tbaa !13
  %6 = getelementptr inbounds nuw %struct.tar, ptr %5, i32 0, i32 12
  %7 = load ptr, ptr %6, align 8, !tbaa !52
  %8 = icmp ne ptr %7, null
  br i1 %8, label %9, label %19

9:                                                ; preds = %4
  %10 = load ptr, ptr %2, align 8, !tbaa !13
  %11 = getelementptr inbounds nuw %struct.tar, ptr %10, i32 0, i32 12
  %12 = load ptr, ptr %11, align 8, !tbaa !52
  store ptr %12, ptr %3, align 8, !tbaa !54
  %13 = load ptr, ptr %3, align 8, !tbaa !54
  %14 = getelementptr inbounds nuw %struct.sparse_block, ptr %13, i32 0, i32 0
  %15 = load ptr, ptr %14, align 8, !tbaa !59
  %16 = load ptr, ptr %2, align 8, !tbaa !13
  %17 = getelementptr inbounds nuw %struct.tar, ptr %16, i32 0, i32 12
  store ptr %15, ptr %17, align 8, !tbaa !52
  %18 = load ptr, ptr %3, align 8, !tbaa !54
  call void @free(ptr noundef %18) #10
  br label %4, !llvm.loop !71

19:                                               ; preds = %4
  %20 = load ptr, ptr %2, align 8, !tbaa !13
  %21 = getelementptr inbounds nuw %struct.tar, ptr %20, i32 0, i32 13
  store ptr null, ptr %21, align 8, !tbaa !72
  call void @llvm.lifetime.end.p0(i64 8, ptr %3) #10
  ret void
}

; Function Attrs: nounwind uwtable
define internal i32 @archive_read_format_tar_skip(ptr noundef %0) #0 {
  %2 = alloca i32, align 4
  %3 = alloca ptr, align 8
  %4 = alloca i64, align 8
  %5 = alloca i64, align 8
  %6 = alloca ptr, align 8
  %7 = alloca ptr, align 8
  %8 = alloca i32, align 4
  store ptr %0, ptr %3, align 8, !tbaa !11
  call void @llvm.lifetime.start.p0(i64 8, ptr %4) #10
  call void @llvm.lifetime.start.p0(i64 8, ptr %5) #10
  call void @llvm.lifetime.start.p0(i64 8, ptr %6) #10
  call void @llvm.lifetime.start.p0(i64 8, ptr %7) #10
  %9 = load ptr, ptr %3, align 8, !tbaa !11
  %10 = getelementptr inbounds nuw %struct.archive_read, ptr %9, i32 0, i32 13
  %11 = load ptr, ptr %10, align 8, !tbaa !20
  %12 = getelementptr inbounds nuw %struct.archive_format_descriptor, ptr %11, i32 0, i32 0
  %13 = load ptr, ptr %12, align 8, !tbaa !36
  store ptr %13, ptr %7, align 8, !tbaa !13
  store i64 0, ptr %5, align 8, !tbaa !46
  %14 = load ptr, ptr %7, align 8, !tbaa !13
  %15 = getelementptr inbounds nuw %struct.tar, ptr %14, i32 0, i32 12
  %16 = load ptr, ptr %15, align 8, !tbaa !52
  store ptr %16, ptr %6, align 8, !tbaa !54
  br label %17

17:                                               ; preds = %40, %1
  %18 = load ptr, ptr %6, align 8, !tbaa !54
  %19 = icmp ne ptr %18, null
  br i1 %19, label %20, label %44

20:                                               ; preds = %17
  %21 = load ptr, ptr %6, align 8, !tbaa !54
  %22 = getelementptr inbounds nuw %struct.sparse_block, ptr %21, i32 0, i32 3
  %23 = load i32, ptr %22, align 8, !tbaa !55
  %24 = icmp ne i32 %23, 0
  br i1 %24, label %39, label %25

25:                                               ; preds = %20
  %26 = load ptr, ptr %6, align 8, !tbaa !54
  %27 = getelementptr inbounds nuw %struct.sparse_block, ptr %26, i32 0, i32 2
  %28 = load i64, ptr %27, align 8, !tbaa !58
  %29 = load i64, ptr %5, align 8, !tbaa !46
  %30 = sub nsw i64 9223372036854775807, %29
  %31 = icmp sge i64 %28, %30
  br i1 %31, label %32, label %33

32:                                               ; preds = %25
  store i32 -30, ptr %2, align 4
  store i32 1, ptr %8, align 4
  br label %78

33:                                               ; preds = %25
  %34 = load ptr, ptr %6, align 8, !tbaa !54
  %35 = getelementptr inbounds nuw %struct.sparse_block, ptr %34, i32 0, i32 2
  %36 = load i64, ptr %35, align 8, !tbaa !58
  %37 = load i64, ptr %5, align 8, !tbaa !46
  %38 = add nsw i64 %37, %36
  store i64 %38, ptr %5, align 8, !tbaa !46
  br label %39

39:                                               ; preds = %33, %20
  br label %40

40:                                               ; preds = %39
  %41 = load ptr, ptr %6, align 8, !tbaa !54
  %42 = getelementptr inbounds nuw %struct.sparse_block, ptr %41, i32 0, i32 0
  %43 = load ptr, ptr %42, align 8, !tbaa !59
  store ptr %43, ptr %6, align 8, !tbaa !54
  br label %17, !llvm.loop !70

44:                                               ; preds = %17
  %45 = load i64, ptr %5, align 8, !tbaa !46
  %46 = load ptr, ptr %7, align 8, !tbaa !13
  %47 = getelementptr inbounds nuw %struct.tar, ptr %46, i32 0, i32 7
  %48 = load i64, ptr %47, align 8, !tbaa !53
  %49 = icmp sgt i64 %45, %48
  br i1 %49, label %50, label %54

50:                                               ; preds = %44
  %51 = load ptr, ptr %7, align 8, !tbaa !13
  %52 = getelementptr inbounds nuw %struct.tar, ptr %51, i32 0, i32 7
  %53 = load i64, ptr %52, align 8, !tbaa !53
  store i64 %53, ptr %5, align 8, !tbaa !46
  br label %54

54:                                               ; preds = %50, %44
  %55 = load ptr, ptr %7, align 8, !tbaa !13
  %56 = getelementptr inbounds nuw %struct.tar, ptr %55, i32 0, i32 9
  %57 = load i64, ptr %56, align 8, !tbaa !64
  %58 = load ptr, ptr %7, align 8, !tbaa !13
  %59 = getelementptr inbounds nuw %struct.tar, ptr %58, i32 0, i32 10
  %60 = load i64, ptr %59, align 8, !tbaa !69
  %61 = add nsw i64 %57, %60
  %62 = load i64, ptr %5, align 8, !tbaa !46
  %63 = add nsw i64 %62, %61
  store i64 %63, ptr %5, align 8, !tbaa !46
  %64 = load ptr, ptr %3, align 8, !tbaa !11
  %65 = load i64, ptr %5, align 8, !tbaa !46
  %66 = call i64 @__archive_read_consume(ptr noundef %64, i64 noundef %65)
  store i64 %66, ptr %4, align 8, !tbaa !46
  %67 = load i64, ptr %4, align 8, !tbaa !46
  %68 = icmp slt i64 %67, 0
  br i1 %68, label %69, label %70

69:                                               ; preds = %54
  store i32 -30, ptr %2, align 4
  store i32 1, ptr %8, align 4
  br label %78

70:                                               ; preds = %54
  %71 = load ptr, ptr %7, align 8, !tbaa !13
  %72 = getelementptr inbounds nuw %struct.tar, ptr %71, i32 0, i32 7
  store i64 0, ptr %72, align 8, !tbaa !53
  %73 = load ptr, ptr %7, align 8, !tbaa !13
  %74 = getelementptr inbounds nuw %struct.tar, ptr %73, i32 0, i32 10
  store i64 0, ptr %74, align 8, !tbaa !69
  %75 = load ptr, ptr %7, align 8, !tbaa !13
  %76 = getelementptr inbounds nuw %struct.tar, ptr %75, i32 0, i32 9
  store i64 0, ptr %76, align 8, !tbaa !64
  %77 = load ptr, ptr %7, align 8, !tbaa !13
  call void @gnu_clear_sparse_list(ptr noundef %77)
  store i32 0, ptr %2, align 4
  store i32 1, ptr %8, align 4
  br label %78

78:                                               ; preds = %70, %69, %32
  call void @llvm.lifetime.end.p0(i64 8, ptr %7) #10
  call void @llvm.lifetime.end.p0(i64 8, ptr %6) #10
  call void @llvm.lifetime.end.p0(i64 8, ptr %5) #10
  call void @llvm.lifetime.end.p0(i64 8, ptr %4) #10
  %79 = load i32, ptr %2, align 4
  ret i32 %79
}