; Function Attrs: nounwind uwtable
define internal range(i32 -30, 1) i32 @archive_read_format_tar_skip(ptr noundef %0) #0 {
  %2 = getelementptr inbounds nuw i8, ptr %0, i64 2072
  %3 = load ptr, ptr %2, align 8, !tbaa !17
  %4 = load ptr, ptr %3, align 8, !tbaa !36
  %5 = getelementptr inbounds nuw i8, ptr %4, i64 192
  %.02229 = load ptr, ptr %5, align 8, !tbaa !88
  %.not30 = icmp eq ptr %.02229, null
  br i1 %.not30, label %._crit_edge, label %.lr.ph

.lr.ph:                                           ; preds = %1, %14
  %.02232 = phi ptr [ %.022, %14 ], [ %.02229, %1 ]
  %.02331 = phi i64 [ %.1, %14 ], [ 0, %1 ]
  %6 = getelementptr inbounds nuw i8, ptr %.02232, i64 24
  %7 = load i32, ptr %6, align 8, !tbaa !83
  %.not26 = icmp eq i32 %7, 0
  br i1 %.not26, label %8, label %14

8:                                                ; preds = %.lr.ph
  %9 = getelementptr inbounds nuw i8, ptr %.02232, i64 16
  %10 = load i64, ptr %9, align 8, !tbaa !82
  %11 = sub nsw i64 9223372036854775807, %.02331
  %.not27 = icmp slt i64 %10, %11
  br i1 %.not27, label %12, label %.loopexit

12:                                               ; preds = %8
  %13 = add nsw i64 %10, %.02331
  br label %14

14:                                               ; preds = %.lr.ph, %12
  %.1 = phi i64 [ %.02331, %.lr.ph ], [ %13, %12 ]
  %.022 = load ptr, ptr %.02232, align 8, !tbaa !88
  %.not = icmp eq ptr %.022, null
  br i1 %.not, label %._crit_edge, label %.lr.ph, !llvm.loop !89

._crit_edge:                                      ; preds = %14, %1
  %.023.lcssa = phi i64 [ 0, %1 ], [ %.1, %14 ]
  %15 = getelementptr inbounds nuw i8, ptr %4, i64 152
  %16 = load i64, ptr %15, align 8, !tbaa !73
  %spec.select = tail call i64 @llvm.smin.i64(i64 %.023.lcssa, i64 %16)
  %17 = getelementptr inbounds nuw i8, ptr %4, i64 168
  %18 = load i64, ptr %17, align 8, !tbaa !74
  %19 = getelementptr inbounds nuw i8, ptr %4, i64 176
  %20 = load i64, ptr %19, align 8, !tbaa !86
  %21 = add i64 %spec.select, %18
  %22 = add i64 %21, %20
  %23 = tail call i64 @__archive_read_consume(ptr noundef %0, i64 noundef %22) #13
  %24 = icmp slt i64 %23, 0
  br i1 %24, label %.loopexit, label %25

25:                                               ; preds = %._crit_edge
  store i64 0, ptr %15, align 8, !tbaa !73
  tail call void @llvm.memset.p0.i64(ptr noundef nonnull align 8 dereferenceable(16) %17, i8 0, i64 16, i1 false)
  %26 = load ptr, ptr %5, align 8, !tbaa !48
  %.not6.i = icmp eq ptr %26, null
  br i1 %.not6.i, label %gnu_clear_sparse_list.exit, label %.lr.ph.i

.lr.ph.i:                                         ; preds = %25, %.lr.ph.i
  %27 = phi ptr [ %29, %.lr.ph.i ], [ %26, %25 ]
  %28 = load ptr, ptr %27, align 8, !tbaa !49
  store ptr %28, ptr %5, align 8, !tbaa !48
  tail call void @free(ptr noundef nonnull %27) #13
  %29 = load ptr, ptr %5, align 8, !tbaa !48
  %.not.i = icmp eq ptr %29, null
  br i1 %.not.i, label %gnu_clear_sparse_list.exit, label %.lr.ph.i, !llvm.loop !51

gnu_clear_sparse_list.exit:                       ; preds = %.lr.ph.i, %25
  %30 = getelementptr inbounds nuw i8, ptr %4, i64 200
  store ptr null, ptr %30, align 8, !tbaa !52
  br label %.loopexit

.loopexit:                                        ; preds = %8, %._crit_edge, %gnu_clear_sparse_list.exit
  %.0 = phi i32 [ 0, %gnu_clear_sparse_list.exit ], [ -30, %._crit_edge ], [ -30, %8 ]
  ret i32 %.0
}